target datalayout = "e-m:e-p270:32:32-p271:32:32-p272:64:64-i64:64-i128:128-f80:128-n8:16:32:64-S128"
target triple = "x86_64-pc-linux-gnu"

%struct.connectdata = type { %struct.Curl_llist_node, ptr, ptr, i64, ptr, i64, ptr, ptr, %struct.hostname, ptr, ptr, %struct.hostname, %struct.proxy_info, %struct.proxy_info, %struct.ip_quadruple, %struct.ip_quadruple, ptr, ptr, ptr, ptr, ptr, %struct.curltime, %struct.curltime, %struct.curltime, [2 x i32], [2 x ptr], [2 x ptr], [2 x ptr], %struct.anon, %struct.easy_pollset, %struct.ssl_primary_config, %struct.ssl_primary_config, %struct.ConnectBits, ptr, ptr, %struct.curltime, i32, i32, %struct.Curl_llist, i32, i32, %struct.ntlmdata, %struct.ntlmdata, %union.anon.1, ptr, ptr, i16, i32, i32, i32, i32, i16, i16, i8, i8, i8, i8, i8, i8, i8 }
%struct.Curl_llist_node = type { ptr, ptr, ptr, ptr }
%struct.hostname = type { ptr, ptr, ptr, ptr }
%struct.proxy_info = type { %struct.hostname, i32, i8, ptr, ptr }
%struct.ip_quadruple = type { [46 x i8], [46 x i8], i32, i32 }
%struct.anon = type { [2 x %struct.curltime], i32 }
%struct.easy_pollset = type { [5 x i32], i32, [5 x i8] }
%struct.ssl_primary_config = type { ptr, ptr, ptr, ptr, ptr, ptr, ptr, ptr, ptr, ptr, ptr, ptr, ptr, ptr, i8, i32, i8, i8 }
%struct.ConnectBits = type { i64 }
%struct.curltime = type { i64, i32 }
%struct.Curl_llist = type { ptr, ptr, ptr, i64 }
%struct.ntlmdata = type { i32, [8 x i8], i32, ptr }
%union.anon.1 = type { %struct.ftp_conn }
%struct.ftp_conn = type { %struct.pingpong, ptr, ptr, ptr, ptr, ptr, ptr, ptr, i8, i64, ptr, i64, i32, i32, i32, i32, i32, i16, i8, i8, i8, i8, i8 }
%struct.pingpong = type { i64, i8, ptr, i64, i64, %struct.curltime, i64, %struct.dynbuf, %struct.dynbuf, i64, i64, ptr, ptr }
%struct.dynbuf = type { ptr, i64, i64, i64 }
%struct.Curl_easy = type { i32, i64, i64, ptr, %struct.Curl_llist_node, %struct.Curl_llist_node, i32, i32, %struct.Curl_message, %struct.easy_pollset, %struct.Names, ptr, ptr, ptr, ptr, %struct.SingleRequest, %struct.UserDefined, ptr, ptr, ptr, %struct.Progress, %struct.UrlState, ptr, %struct.PureInfo, %struct.curl_tlssessioninfo }
%struct.Curl_message = type { %struct.Curl_llist_node, %struct.CURLMsg }
%struct.CURLMsg = type { i32, ptr, %union.anon }
%union.anon = type { ptr }
%struct.Names = type { ptr, i32 }
%struct.SingleRequest = type <{ i64, i64, i64, i64, %struct.curltime, i32, i32, i32, i32, i64, i32, i32, i8, i8, [2 x i8], i32, ptr, ptr, %struct.bufq, i64, i64, ptr, ptr, %union.anon.0, ptr, i8, i32, [3 x i8] }>
%struct.bufq = type { ptr, ptr, ptr, ptr, i64, i64, i64, i32 }
%union.anon.0 = type { ptr }
%struct.UserDefined = type <{ ptr, ptr, ptr, ptr, ptr, ptr, i64, i64, i64, ptr, ptr, i64, ptr, ptr, ptr, ptr, ptr, ptr, ptr, ptr, ptr, ptr, ptr, ptr, ptr, ptr, ptr, ptr, ptr, ptr, ptr, ptr, ptr, ptr, ptr, i64, i64, i64, i64, i64, i64, i64, i64, i64, ptr, ptr, %struct.curl_mimepart, ptr, ptr, ptr, i64, %struct.ssl_config_data, %struct.ssl_config_data, ptr, i16, i8, i8, %struct.ssl_general_config, i32, i32, i32, [4 x i8], ptr, ptr, i64, i32, i8, i8, i8, i8, ptr, ptr, ptr, i32, [4 x i8], [74 x ptr], [8 x ptr], i32, i32, i32, [4 x i8], ptr, i32, [4 x i8], ptr, ptr, ptr, ptr, ptr, i32, i32, i32, i32, i32, i32, i32, i32, i64, ptr, ptr, i64, ptr, i64, ptr, ptr, ptr, ptr, i32, i16, i16, i16, i8, i8, i8, i8, i8, i8, i8, i8, i64, [6 x i8] }>
%struct.curl_mimepart = type { ptr, ptr, i32, i32, ptr, ptr, ptr, ptr, ptr, ptr, ptr, ptr, ptr, ptr, ptr, i64, %struct.mime_state, ptr, %struct.mime_encoder_state, i64 }
%struct.mime_state = type { i32, ptr, i64 }
%struct.mime_encoder_state = type { i64, i64, i64, [256 x i8] }
%struct.ssl_config_data = type { %struct.ssl_primary_config, i64, ptr, ptr, ptr, ptr, ptr, ptr, ptr, i16 }
%struct.ssl_general_config = type { i32 }
%struct.Progress = type { i64, %struct.pgrs_dir, %struct.pgrs_dir, i64, i64, i32, i32, i64, i64, i64, i64, i64, i64, i64, i64, i64, %struct.curltime, %struct.curltime, %struct.curltime, %struct.curltime, %struct.curltime, [6 x i64], [6 x %struct.curltime], i32, i8 }
%struct.pgrs_dir = type { i64, i64, i64, %struct.pgrs_measure }
%struct.pgrs_measure = type { %struct.curltime, i64 }
%struct.UrlState = type { %struct.curltime, i64, i64, %struct.dynbuf, ptr, i64, ptr, i32, i32, i32, ptr, i32, i64, i32, ptr, %struct.digestdata, %struct.digestdata, %struct.auth, %struct.auth, %struct.Curl_async, ptr, i8, %struct.curltime, %struct.Curl_tree, %struct.Curl_llist, [15 x %struct.time_node], ptr, ptr, i64, i64, i64, i64, [32 x i8], i64, ptr, ptr, ptr, %struct.urlpieces, ptr, ptr, ptr, ptr, ptr, i64, %struct.dynbuf, %struct.Curl_llist, [2 x %struct.curl_header], ptr, i32, ptr, ptr, %struct.store_netrc, %struct.dynamically_allocated_data, i8, i8, i8, i8, i32 }
%struct.digestdata = type { ptr, ptr, ptr, ptr, ptr, ptr, i32, i8, i8 }
%struct.auth = type { i64, i64, i64, i8 }
%struct.Curl_async = type { ptr, ptr, ptr, ptr, i32, i32, i8 }
%struct.Curl_tree = type { ptr, ptr, ptr, ptr, %struct.curltime, ptr }
%struct.time_node = type { %struct.Curl_llist_node, %struct.curltime, i32 }
%struct.urlpieces = type { ptr, ptr, ptr, ptr, ptr, ptr, ptr, ptr }
%struct.curl_header = type { ptr, ptr, i64, i64, i32, ptr }
%struct.store_netrc = type { %struct.dynbuf, ptr, i8 }
%struct.dynamically_allocated_data = type { ptr, ptr, ptr, ptr, ptr, ptr, ptr, ptr, ptr, ptr, ptr, ptr, ptr, ptr }
%struct.PureInfo = type { i32, i32, i32, i64, i64, i64, i64, i64, i64, i64, ptr, ptr, i64, i32, %struct.ip_quadruple, i32, ptr, i32, %struct.curl_certinfo, i32, i8 }
%struct.curl_certinfo = type { i32, ptr }
%struct.curl_tlssessioninfo = type { i32, ptr }
%struct.imap_conn = type { %struct.pingpong, %struct.SASL, %struct.dynbuf, ptr, ptr, i32, [5 x i8], i8, i8, i8 }
%struct.SASL = type { ptr, i32, ptr, i16, i16, i16, i8 }
%struct.curl_trc_feat = type { ptr, i32 }

@.str.13 = private unnamed_addr constant [45 x i8] c"No known authentication mechanisms supported\00", align 1

; Function Attrs: nounwind uwtable
define internal void @imap_state(ptr noundef %0, i32 noundef %1) #0 {
  %3 = alloca ptr, align 8
  %4 = alloca i32, align 4
  %5 = alloca ptr, align 8
  store ptr %0, ptr %3, align 8, !tbaa !3
  store i32 %1, ptr %4, align 4, !tbaa !10
  call void @llvm.lifetime.start.p0(i64 8, ptr %5) #6
  %6 = load ptr, ptr %3, align 8, !tbaa !3
  %7 = getelementptr inbounds nuw %struct.Curl_easy, ptr %6, i32 0, i32 3
  %8 = load ptr, ptr %7, align 8, !tbaa !16
  %9 = getelementptr inbounds nuw %struct.connectdata, ptr %8, i32 0, i32 43
  store ptr %9, ptr %5, align 8, !tbaa !99
  %10 = load i32, ptr %4, align 4, !tbaa !10
  %11 = load ptr, ptr %5, align 8, !tbaa !99
  %12 = getelementptr inbounds nuw %struct.imap_conn, ptr %11, i32 0, i32 5
  store i32 %10, ptr %12, align 8, !tbaa !113
  call void @llvm.lifetime.end.p0(i64 8, ptr %5) #6
  ret void
}

; Function Attrs: nounwind uwtable
define internal i32 @imap_perform_authentication(ptr noundef %0, ptr noundef %1) #0 {
  %3 = alloca i32, align 4
  %4 = alloca ptr, align 8
  %5 = alloca ptr, align 8
  %6 = alloca i32, align 4
  %7 = alloca ptr, align 8
  %8 = alloca i32, align 4
  %9 = alloca i32, align 4
  store ptr %0, ptr %4, align 8, !tbaa !3
  store ptr %1, ptr %5, align 8, !tbaa !8
  call void @llvm.lifetime.start.p0(i64 4, ptr %6) #6
  store i32 0, ptr %6, align 4, !tbaa !10
  call void @llvm.lifetime.start.p0(i64 8, ptr %7) #6
  %10 = load ptr, ptr %5, align 8, !tbaa !8
  %11 = getelementptr inbounds nuw %struct.connectdata, ptr %10, i32 0, i32 43
  store ptr %11, ptr %7, align 8, !tbaa !99
  call void @llvm.lifetime.start.p0(i64 4, ptr %8) #6
  %12 = load ptr, ptr %7, align 8, !tbaa !99
  %13 = getelementptr inbounds nuw %struct.imap_conn, ptr %12, i32 0, i32 9
  %14 = load i8, ptr %13, align 1
  %15 = lshr i8 %14, 1
  %16 = and i8 %15, 1
  %17 = zext i8 %16 to i32
  %18 = icmp ne i32 %17, 0
  br i1 %18, label %24, label %19

19:                                               ; preds = %2
  %20 = load ptr, ptr %7, align 8, !tbaa !99
  %21 = getelementptr inbounds nuw %struct.imap_conn, ptr %20, i32 0, i32 1
  %22 = load ptr, ptr %4, align 8, !tbaa !3
  %23 = call zeroext i1 @Curl_sasl_can_authenticate(ptr noundef %21, ptr noundef %22)
  br i1 %23, label %27, label %24

24:                                               ; preds = %19, %2
  %25 = load ptr, ptr %4, align 8, !tbaa !3
  call void @imap_state(ptr noundef %25, i32 noundef 0)
  %26 = load i32, ptr %6, align 4, !tbaa !10
  store i32 %26, ptr %3, align 4
  store i32 1, ptr %9, align 4
  br label %101

27:                                               ; preds = %19
  %28 = load ptr, ptr %7, align 8, !tbaa !99
  %29 = getelementptr inbounds nuw %struct.imap_conn, ptr %28, i32 0, i32 1
  %30 = load ptr, ptr %4, align 8, !tbaa !3
  %31 = load ptr, ptr %7, align 8, !tbaa !99
  %32 = getelementptr inbounds nuw %struct.imap_conn, ptr %31, i32 0, i32 9
  %33 = load i8, ptr %32, align 1
  %34 = lshr i8 %33, 4
  %35 = and i8 %34, 1
  %36 = zext i8 %35 to i32
  %37 = icmp ne i32 %36, 0
  %38 = call i32 @Curl_sasl_start(ptr noundef %29, ptr noundef %30, i1 noundef zeroext %37, ptr noundef %8)
  store i32 %38, ptr %6, align 4, !tbaa !10
  %39 = load i32, ptr %6, align 4, !tbaa !10
  %40 = icmp ne i32 %39, 0
  br i1 %40, label %99, label %41

41:                                               ; preds = %27
  %42 = load i32, ptr %8, align 4, !tbaa !10
  %43 = icmp eq i32 %42, 1
  br i1 %43, label %44, label %46

44:                                               ; preds = %41
  %45 = load ptr, ptr %4, align 8, !tbaa !3
  call void @imap_state(ptr noundef %45, i32 noundef 5)
  br label %98

46:                                               ; preds = %41
  %47 = load ptr, ptr %7, align 8, !tbaa !99
  %48 = getelementptr inbounds nuw %struct.imap_conn, ptr %47, i32 0, i32 9
  %49 = load i8, ptr %48, align 1
  %50 = lshr i8 %49, 3
  %51 = and i8 %50, 1
  %52 = zext i8 %51 to i32
  %53 = icmp ne i32 %52, 0
  br i1 %53, label %65, label %54

54:                                               ; preds = %46
  %55 = load ptr, ptr %7, align 8, !tbaa !99
  %56 = getelementptr inbounds nuw %struct.imap_conn, ptr %55, i32 0, i32 7
  %57 = load i8, ptr %56, align 1, !tbaa !107
  %58 = zext i8 %57 to i32
  %59 = and i32 %58, 1
  %60 = icmp ne i32 %59, 0
  br i1 %60, label %61, label %65

61:                                               ; preds = %54
  %62 = load ptr, ptr %4, align 8, !tbaa !3
  %63 = load ptr, ptr %5, align 8, !tbaa !8
  %64 = call i32 @imap_perform_login(ptr noundef %62, ptr noundef %63)
  store i32 %64, ptr %6, align 4, !tbaa !10
  br label %97

65:                                               ; preds = %54, %46
  br label %66

66:                                               ; preds = %65
  %67 = load ptr, ptr %4, align 8, !tbaa !3
  %68 = icmp ne ptr %67, null
  br i1 %68, label %69, label %94

69:                                               ; preds = %66
  %70 = load ptr, ptr %4, align 8, !tbaa !3
  %71 = getelementptr inbounds nuw %struct.Curl_easy, ptr %70, i32 0, i32 16
  %72 = getelementptr inbounds nuw %struct.UserDefined, ptr %71, i32 0, i32 119
  %73 = load i64, ptr %72, align 2
  %74 = lshr i64 %73, 31
  %75 = and i64 %74, 1
  %76 = trunc i64 %75 to i32
  %77 = icmp ne i32 %76, 0
  br i1 %77, label %78, label %94

78:                                               ; preds = %69
  %79 = load ptr, ptr %4, align 8, !tbaa !3
  %80 = getelementptr inbounds nuw %struct.Curl_easy, ptr %79, i32 0, i32 21
  %81 = getelementptr inbounds nuw %struct.UrlState, ptr %80, i32 0, i32 50
  %82 = load ptr, ptr %81, align 8, !tbaa !137
  %83 = icmp ne ptr %82, null
  br i1 %83, label %84, label %92

84:                                               ; preds = %78
  %85 = load ptr, ptr %4, align 8, !tbaa !3
  %86 = getelementptr inbounds nuw %struct.Curl_easy, ptr %85, i32 0, i32 21
  %87 = getelementptr inbounds nuw %struct.UrlState, ptr %86, i32 0, i32 50
  %88 = load ptr, ptr %87, align 8, !tbaa !137
  %89 = getelementptr inbounds nuw %struct.curl_trc_feat, ptr %88, i32 0, i32 1
  %90 = load i32, ptr %89, align 8, !tbaa !138
  %91 = icmp sge i32 %90, 1
  br i1 %91, label %92, label %94

92:                                               ; preds = %84, %78
  %93 = load ptr, ptr %4, align 8, !tbaa !3
  call void (ptr, ptr, ...) @Curl_infof(ptr noundef %93, ptr noundef @.str.13)
  br label %94

94:                                               ; preds = %92, %84, %69, %66
  br label %95

95:                                               ; preds = %94
  br label %96

96:                                               ; preds = %95
  store i32 67, ptr %6, align 4, !tbaa !10
  br label %97

97:                                               ; preds = %96, %61
  br label %98

98:                                               ; preds = %97, %44
  br label %99

99:                                               ; preds = %98, %27
  %100 = load i32, ptr %6, align 4, !tbaa !10
  store i32 %100, ptr %3, align 4
  store i32 1, ptr %9, align 4
  br label %101

101:                                              ; preds = %99, %24
  call void @llvm.lifetime.end.p0(i64 4, ptr %8) #6
  call void @llvm.lifetime.end.p0(i64 8, ptr %7) #6
  call void @llvm.lifetime.end.p0(i64 4, ptr %6) #6
  %102 = load i32, ptr %3, align 4
  ret i32 %102
}