; Function Attrs: nounwind uwtable
define internal fastcc i32 @imap_perform_authentication(ptr noundef %0, ptr noundef %1) unnamed_addr #0 {
  %3 = alloca i32, align 4
  call void @llvm.lifetime.start.p0(i64 4, ptr nonnull %3) #7
  %4 = getelementptr inbounds nuw i8, ptr %1, i64 1339
  %5 = load i8, ptr %4, align 1
  %6 = and i8 %5, 2
  %.not = icmp eq i8 %6, 0
  br i1 %.not, label %7, label %10

7:                                                ; preds = %2
  %8 = getelementptr inbounds nuw i8, ptr %1, i64 1248
  %9 = tail call zeroext i1 @Curl_sasl_can_authenticate(ptr noundef nonnull %8, ptr noundef %0) #7
  br i1 %9, label %13, label %10

10:                                               ; preds = %7, %2
  %11 = getelementptr i8, ptr %0, i64 24
  %.val31 = load ptr, ptr %11, align 8, !tbaa !98
  %12 = getelementptr inbounds nuw i8, ptr %.val31, i64 1328
  store i32 0, ptr %12, align 8, !tbaa !110
  br label %46

13:                                               ; preds = %7
  %14 = load i8, ptr %4, align 1
  %15 = and i8 %14, 16
  %16 = icmp ne i8 %15, 0
  %17 = call i32 @Curl_sasl_start(ptr noundef nonnull %8, ptr noundef %0, i1 noundef zeroext %16, ptr noundef nonnull %3) #7
  %.not25 = icmp eq i32 %17, 0
  br i1 %.not25, label %18, label %46

18:                                               ; preds = %13
  %19 = load i32, ptr %3, align 4, !tbaa !134
  %20 = icmp eq i32 %19, 1
  br i1 %20, label %21, label %24

21:                                               ; preds = %18
  %22 = getelementptr i8, ptr %0, i64 24
  %.val = load ptr, ptr %22, align 8, !tbaa !98
  %23 = getelementptr inbounds nuw i8, ptr %.val, i64 1328
  store i32 5, ptr %23, align 8, !tbaa !110
  br label %46

24:                                               ; preds = %18
  %25 = load i8, ptr %4, align 1
  %26 = and i8 %25, 8
  %.not26 = icmp eq i8 %26, 0
  br i1 %.not26, label %27, label %33

27:                                               ; preds = %24
  %28 = getelementptr inbounds nuw i8, ptr %1, i64 1337
  %29 = load i8, ptr %28, align 1, !tbaa !117
  %30 = and i8 %29, 1
  %.not27 = icmp eq i8 %30, 0
  br i1 %.not27, label %33, label %31

31:                                               ; preds = %27
  %32 = call fastcc i32 @imap_perform_login(ptr noundef %0, ptr noundef nonnull %1)
  br label %46

33:                                               ; preds = %24, %27
  %.not28 = icmp eq ptr %0, null
  br i1 %.not28, label %46, label %34

34:                                               ; preds = %33
  %35 = getelementptr inbounds nuw i8, ptr %0, i64 2658
  %36 = load i64, ptr %35, align 2
  %37 = and i64 %36, 2147483648
  %.not29 = icmp eq i64 %37, 0
  br i1 %.not29, label %46, label %38

38:                                               ; preds = %34
  %39 = getelementptr inbounds nuw i8, ptr %0, i64 4864
  %40 = load ptr, ptr %39, align 8, !tbaa !135
  %.not30 = icmp eq ptr %40, null
  br i1 %.not30, label %45, label %41

41:                                               ; preds = %38
  %42 = getelementptr inbounds nuw i8, ptr %40, i64 8
  %43 = load i32, ptr %42, align 8, !tbaa !136
  %44 = icmp sgt i32 %43, 0
  br i1 %44, label %45, label %46

45:                                               ; preds = %41, %38
  call void (ptr, ptr, ...) @Curl_infof(ptr noundef nonnull %0, ptr noundef nonnull @.str.13) #7
  br label %46

46:                                               ; preds = %13, %31, %21, %45, %41, %34, %33, %10
  %.0 = phi i32 [ 0, %10 ], [ %17, %13 ], [ 0, %21 ], [ %32, %31 ], [ 67, %45 ], [ 67, %41 ], [ 67, %34 ], [ 67, %33 ]
  call void @llvm.lifetime.end.p0(i64 4, ptr nonnull %3) #7
  ret i32 %.0
}